; Function Attrs: mustprogress uwtable
define void @_ZN6icu_758numparse4impl12ParsedNumber11postProcessEv(ptr noundef nonnull align 8 dereferenceable(216) %this) local_unnamed_addr #0 align 2 {
entry:
  %bogus = getelementptr inbounds i8, ptr %this, i64 8
  %0 = load i8, ptr %bogus, align 8
  %1 = and i8 %0, 1
  %tobool.not = icmp eq i8 %1, 0
  br i1 %tobool.not, label %land.lhs.true, label %if.end

land.lhs.true:                                    ; preds = %entry
  %flags = getelementptr inbounds i8, ptr %this, i64 76
  %2 = load i32, ptr %flags, align 4
  %and = and i32 %2, 1
  %cmp.not = icmp eq i32 %and, 0
  br i1 %cmp.not, label %if.end, label %if.then

if.then:                                          ; preds = %land.lhs.true
  tail call void @_ZN6icu_756number4impl15DecimalQuantity6negateEv(ptr noundef nonnull align 8 dereferenceable(66) %this)
  br label %if.end

if.end:                                           ; preds = %if.then, %land.lhs.true, %entry
  ret void
}